target datalayout = "e-m:e-p270:32:32-p271:32:32-p272:64:64-i64:64-i128:128-f80:128-n8:16:32:64-S128"
target triple = "x86_64-unknown-linux-gnu"

%"class.mbp::solve_plugin" = type { ptr, ptr, i32, ptr }

@_ZTVN3mbp18basic_solve_pluginE = linkonce_odr hidden unnamed_addr constant { [5 x ptr] } { [5 x ptr] [ptr null, ptr @_ZTIN3mbp18basic_solve_pluginE, ptr @_ZN3mbp18basic_solve_plugin5solveEP4exprb, ptr @_ZN3mbp18basic_solve_pluginD2Ev, ptr @_ZN3mbp18basic_solve_pluginD0Ev] }, comdat, align 8
@_ZTVN3mbp12solve_pluginE = linkonce_odr hidden unnamed_addr constant { [5 x ptr] } { [5 x ptr] [ptr null, ptr @_ZTIN3mbp12solve_pluginE, ptr @__cxa_pure_virtual, ptr @_ZN3mbp12solve_pluginD2Ev, ptr @_ZN3mbp12solve_pluginD0Ev] }, comdat, align 8

; Function Attrs: mustprogress nounwind uwtable
define linkonce_odr hidden void @_ZN3mbp12solve_pluginC2ER11ast_manageriR16is_variable_proc(ptr noundef nonnull align 8 dereferenceable(32) %this, ptr noundef nonnull align 8 dereferenceable(976) %m, i32 noundef %fid, ptr noundef nonnull align 8 dereferenceable(8) %is_var) unnamed_addr #5 comdat align 2 {
entry:
  %this.addr = alloca ptr, align 8
  %m.addr = alloca ptr, align 8
  %fid.addr = alloca i32, align 4
  %is_var.addr = alloca ptr, align 8
  store ptr %this, ptr %this.addr, align 8
  store ptr %m, ptr %m.addr, align 8
  store i32 %fid, ptr %fid.addr, align 4
  store ptr %is_var, ptr %is_var.addr, align 8
  %this1 = load ptr, ptr %this.addr, align 8
  store ptr getelementptr inbounds ({ [5 x ptr] }, ptr @_ZTVN3mbp12solve_pluginE, i32 0, i32 0, i32 2), ptr %this1, align 8
  %m2 = getelementptr inbounds %"class.mbp::solve_plugin", ptr %this1, i32 0, i32 1
  %0 = load ptr, ptr %m.addr, align 8
  store ptr %0, ptr %m2, align 8
  %m_id = getelementptr inbounds %"class.mbp::solve_plugin", ptr %this1, i32 0, i32 2
  %1 = load i32, ptr %fid.addr, align 4
  store i32 %1, ptr %m_id, align 8
  %m_is_var = getelementptr inbounds %"class.mbp::solve_plugin", ptr %this1, i32 0, i32 3
  %2 = load ptr, ptr %is_var.addr, align 8
  store ptr %2, ptr %m_is_var, align 8
  ret void
}

; Function Attrs: mustprogress nounwind uwtable
define linkonce_odr hidden noundef i32 @_ZNK11ast_manager19get_basic_family_idEv(ptr noundef nonnull align 8 dereferenceable(976) %this) #5 comdat align 2 {
entry:
  %this.addr = alloca ptr, align 8
  store ptr %this, ptr %this.addr, align 8
  ret i32 0
}

; Function Attrs: mustprogress uwtable
define linkonce_odr hidden void @_ZN3mbp18basic_solve_pluginC2ER11ast_managerR16is_variable_proc(ptr noundef nonnull align 8 dereferenceable(32) %this, ptr noundef nonnull align 8 dereferenceable(976) %m, ptr noundef nonnull align 8 dereferenceable(8) %is_var) unnamed_addr #4 comdat align 2 {
entry:
  %this.addr = alloca ptr, align 8
  %m.addr = alloca ptr, align 8
  %is_var.addr = alloca ptr, align 8
  store ptr %this, ptr %this.addr, align 8
  store ptr %m, ptr %m.addr, align 8
  store ptr %is_var, ptr %is_var.addr, align 8
  %this1 = load ptr, ptr %this.addr, align 8
  %0 = load ptr, ptr %m.addr, align 8
  %1 = load ptr, ptr %m.addr, align 8
  %call = call noundef i32 @_ZNK11ast_manager19get_basic_family_idEv(ptr noundef nonnull align 8 dereferenceable(976) %1)
  %2 = load ptr, ptr %is_var.addr, align 8
  call void @_ZN3mbp12solve_pluginC2ER11ast_manageriR16is_variable_proc(ptr noundef nonnull align 8 dereferenceable(32) %this1, ptr noundef nonnull align 8 dereferenceable(976) %0, i32 noundef %call, ptr noundef nonnull align 8 dereferenceable(8) %2)
  store ptr getelementptr inbounds ({ [5 x ptr] }, ptr @_ZTVN3mbp18basic_solve_pluginE, i32 0, i32 0, i32 2), ptr %this1, align 8
  ret void
}

; Function Attrs: mustprogress uwtable
define hidden noundef ptr @_ZN3mbp21mk_basic_solve_pluginER11ast_managerR16is_variable_proc(ptr noundef nonnull align 8 dereferenceable(976) %m, ptr noundef nonnull align 8 dereferenceable(8) %is_var) #4 {
entry:
  %m.addr = alloca ptr, align 8
  %is_var.addr = alloca ptr, align 8
  store ptr %m, ptr %m.addr, align 8
  store ptr %is_var, ptr %is_var.addr, align 8
  %call = call noalias noundef ptr @_ZN6memory8allocateEm(i64 noundef 32)
  %0 = load ptr, ptr %m.addr, align 8
  %1 = load ptr, ptr %is_var.addr, align 8
  call void @_ZN3mbp18basic_solve_pluginC2ER11ast_managerR16is_variable_proc(ptr noundef nonnull align 8 dereferenceable(32) %call, ptr noundef nonnull align 8 dereferenceable(976) %0, ptr noundef nonnull align 8 dereferenceable(8) %1)
  ret ptr %call
}