; Function Attrs: mustprogress uwtable
define hidden noalias noundef ptr @_ZN3mbp21mk_basic_solve_pluginER11ast_managerR16is_variable_proc(ptr noundef nonnull align 8 dereferenceable(976) %m, ptr noundef nonnull align 8 dereferenceable(8) %is_var) local_unnamed_addr #3 {
entry:
  %call = tail call noalias noundef ptr @_ZN6memory8allocateEm(i64 noundef 32)
  %m2.i.i = getelementptr inbounds i8, ptr %call, i64 8
  store ptr %m, ptr %m2.i.i, align 8
  %m_id.i.i = getelementptr inbounds i8, ptr %call, i64 16
  store i32 0, ptr %m_id.i.i, align 8
  %m_is_var.i.i = getelementptr inbounds i8, ptr %call, i64 24
  store ptr %is_var, ptr %m_is_var.i.i, align 8
  store ptr getelementptr inbounds ({ [5 x ptr] }, ptr @_ZTVN3mbp18basic_solve_pluginE, i64 0, i32 0, i64 2), ptr %call, align 8
  ret ptr %call
}